target datalayout = "e-m:e-p270:32:32-p271:32:32-p272:64:64-i64:64-i128:128-f80:128-n8:16:32:64-S128"
target triple = "x86_64-pc-linux-gnu"

%struct.PsqlScanStateData = type { ptr, ptr, ptr, ptr, ptr, ptr, i32, i8, i8, ptr, ptr, i32, i32, i32, i32, ptr, i32, [4 x i8], i32, ptr, ptr }
%union.YYSTYPE = type { i64 }
%struct.StackElem = type { ptr, ptr, ptr, ptr, ptr }
%struct.PQExpBufferData = type { ptr, i64, i64 }

; Function Attrs: nounwind uwtable
define dso_local i32 @expr_scanner_offset(ptr noundef %0) #0 {
  %2 = alloca ptr, align 8
  store ptr %0, ptr %2, align 8
  %3 = load ptr, ptr %2, align 8
  %4 = getelementptr inbounds nuw %struct.PsqlScanStateData, ptr %3, i32 0, i32 4
  %5 = load ptr, ptr %4, align 8
  %6 = call i64 @strlen(ptr noundef %5) #18
  %7 = trunc i64 %6 to i32
  ret i32 %7
}

; Function Attrs: nounwind uwtable
define dso_local zeroext i1 @expr_lex_one_word(ptr noundef %0, ptr noundef %1, ptr noundef %2) #0 {
  %4 = alloca ptr, align 8
  %5 = alloca ptr, align 8
  %6 = alloca ptr, align 8
  %7 = alloca i32, align 4
  %8 = alloca %union.YYSTYPE, align 8
  store ptr %0, ptr %4, align 8
  store ptr %1, ptr %5, align 8
  store ptr %2, ptr %6, align 8
  call void @llvm.lifetime.start.p0(i64 4, ptr %7) #13
  call void @llvm.lifetime.start.p0(i64 8, ptr %8) #13
  %9 = load ptr, ptr %5, align 8
  %10 = load ptr, ptr %4, align 8
  %11 = getelementptr inbounds nuw %struct.PsqlScanStateData, ptr %10, i32 0, i32 1
  store ptr %9, ptr %11, align 8
  %12 = load ptr, ptr %5, align 8
  call void @resetPQExpBuffer(ptr noundef %12)
  %13 = load ptr, ptr %4, align 8
  %14 = getelementptr inbounds nuw %struct.PsqlScanStateData, ptr %13, i32 0, i32 2
  %15 = load ptr, ptr %14, align 8
  %16 = icmp ne ptr %15, null
  br i1 %16, label %17, label %26

17:                                               ; preds = %3
  %18 = load ptr, ptr %4, align 8
  %19 = getelementptr inbounds nuw %struct.PsqlScanStateData, ptr %18, i32 0, i32 2
  %20 = load ptr, ptr %19, align 8
  %21 = getelementptr inbounds nuw %struct.StackElem, ptr %20, i32 0, i32 0
  %22 = load ptr, ptr %21, align 8
  %23 = load ptr, ptr %4, align 8
  %24 = getelementptr inbounds nuw %struct.PsqlScanStateData, ptr %23, i32 0, i32 0
  %25 = load ptr, ptr %24, align 8
  call void @expr_yy_switch_to_buffer(ptr noundef %22, ptr noundef %25)
  br label %33

26:                                               ; preds = %3
  %27 = load ptr, ptr %4, align 8
  %28 = getelementptr inbounds nuw %struct.PsqlScanStateData, ptr %27, i32 0, i32 3
  %29 = load ptr, ptr %28, align 8
  %30 = load ptr, ptr %4, align 8
  %31 = getelementptr inbounds nuw %struct.PsqlScanStateData, ptr %30, i32 0, i32 0
  %32 = load ptr, ptr %31, align 8
  call void @expr_yy_switch_to_buffer(ptr noundef %29, ptr noundef %32)
  br label %33

33:                                               ; preds = %26, %17
  %34 = load ptr, ptr %4, align 8
  %35 = getelementptr inbounds nuw %struct.PsqlScanStateData, ptr %34, i32 0, i32 11
  store i32 0, ptr %35, align 8
  %36 = load ptr, ptr %4, align 8
  %37 = getelementptr inbounds nuw %struct.PsqlScanStateData, ptr %36, i32 0, i32 0
  %38 = load ptr, ptr %37, align 8
  %39 = call i32 @expr_yylex(ptr noundef %8, ptr noundef %38)
  store i32 %39, ptr %7, align 4
  %40 = load i32, ptr %7, align 4
  %41 = icmp ne i32 %40, 0
  br i1 %41, label %42, label %52

42:                                               ; preds = %33
  %43 = load ptr, ptr %4, align 8
  %44 = call i32 @expr_scanner_offset(ptr noundef %43)
  %45 = sext i32 %44 to i64
  %46 = load ptr, ptr %5, align 8
  %47 = getelementptr inbounds nuw %struct.PQExpBufferData, ptr %46, i32 0, i32 1
  %48 = load i64, ptr %47, align 8
  %49 = sub i64 %45, %48
  %50 = trunc i64 %49 to i32
  %51 = load ptr, ptr %6, align 8
  store i32 %50, ptr %51, align 4
  br label %54

52:                                               ; preds = %33
  %53 = load ptr, ptr %6, align 8
  store i32 -1, ptr %53, align 4
  br label %54

54:                                               ; preds = %52, %42
  %55 = load ptr, ptr %4, align 8
  call void @psql_scan_reselect_sql_lexer(ptr noundef %55)
  %56 = load i32, ptr %7, align 4
  %57 = icmp ne i32 %56, 0
  call void @llvm.lifetime.end.p0(i64 8, ptr %8) #13
  call void @llvm.lifetime.end.p0(i64 4, ptr %7) #13
  ret i1 %57
}