; Function Attrs: nounwind uwtable
define dso_local noundef zeroext i1 @expr_lex_one_word(ptr noundef initializes((8, 16)) %0, ptr noundef %1, ptr noundef writeonly captures(none) initializes((0, 4)) %2) local_unnamed_addr #0 {
  %4 = alloca %union.YYSTYPE, align 8
  call void @llvm.lifetime.start.p0(i64 8, ptr nonnull %4) #32
  %5 = getelementptr inbounds nuw i8, ptr %0, i64 8
  store ptr %1, ptr %5, align 8
  tail call void @resetPQExpBuffer(ptr noundef %1) #32
  %6 = getelementptr inbounds nuw i8, ptr %0, i64 16
  %7 = load ptr, ptr %6, align 8
  %.not = icmp eq ptr %7, null
  %8 = getelementptr inbounds nuw i8, ptr %0, i64 24
  %.sink.in = select i1 %.not, ptr %8, ptr %7
  %.sink = load ptr, ptr %.sink.in, align 8
  %9 = load ptr, ptr %0, align 8
  tail call void @expr_yy_switch_to_buffer(ptr noundef %.sink, ptr noundef %9)
  %10 = getelementptr inbounds nuw i8, ptr %0, i64 72
  store i32 0, ptr %10, align 8
  %11 = load ptr, ptr %0, align 8
  %12 = call i32 @expr_yylex(ptr noundef nonnull %4, ptr noundef %11)
  %13 = icmp ne i32 %12, 0
  br i1 %13, label %14, label %23

14:                                               ; preds = %3
  %15 = getelementptr inbounds nuw i8, ptr %0, i64 32
  %16 = load ptr, ptr %15, align 8
  %17 = call i64 @strlen(ptr noundef nonnull dereferenceable(1) %16) #34
  %18 = trunc i64 %17 to i32
  %19 = getelementptr inbounds nuw i8, ptr %1, i64 8
  %20 = load i64, ptr %19, align 8
  %21 = trunc i64 %20 to i32
  %22 = sub i32 %18, %21
  br label %23

23:                                               ; preds = %3, %14
  %storemerge = phi i32 [ %22, %14 ], [ -1, %3 ]
  store i32 %storemerge, ptr %2, align 4
  call void @psql_scan_reselect_sql_lexer(ptr noundef nonnull %0) #32
  call void @llvm.lifetime.end.p0(i64 8, ptr nonnull %4) #32
  ret i1 %13
}